target datalayout = "e-m:e-p270:32:32-p271:32:32-p272:64:64-i64:64-i128:128-f80:128-n8:16:32:64-S128"
target triple = "x86_64-pc-linux-gnu"

@app_pkey_methods = internal global ptr null, align 8

; Function Attrs: inlinehint nounwind uwtable
define internal i32 @sk_EVP_PKEY_METHOD_num(ptr noundef %0) #5 {
  %2 = alloca ptr, align 8
  store ptr %0, ptr %2, align 8, !tbaa !13
  %3 = load ptr, ptr %2, align 8, !tbaa !13
  %4 = call i32 @OPENSSL_sk_num(ptr noundef %3)
  ret i32 %4
}

; Function Attrs: nounwind uwtable
define i64 @EVP_PKEY_meth_get_count() #0 {
  %1 = alloca i64, align 8
  call void @llvm.lifetime.start.p0(i64 8, ptr %1) #8
  store i64 10, ptr %1, align 8, !tbaa !77
  %2 = load ptr, ptr @app_pkey_methods, align 8, !tbaa !13
  %3 = icmp ne ptr %2, null
  br i1 %3, label %4, label %10

4:                                                ; preds = %0
  %5 = load ptr, ptr @app_pkey_methods, align 8, !tbaa !13
  %6 = call i32 @sk_EVP_PKEY_METHOD_num(ptr noundef %5)
  %7 = sext i32 %6 to i64
  %8 = load i64, ptr %1, align 8, !tbaa !77
  %9 = add i64 %8, %7
  store i64 %9, ptr %1, align 8, !tbaa !77
  br label %10

10:                                               ; preds = %4, %0
  %11 = load i64, ptr %1, align 8, !tbaa !77
  call void @llvm.lifetime.end.p0(i64 8, ptr %1) #8
  ret i64 %11
}