; Function Attrs: nounwind uwtable
define range(i64 -2147483638, 2147483658) i64 @EVP_PKEY_meth_get_count() local_unnamed_addr #0 {
  %1 = load ptr, ptr @app_pkey_methods, align 8, !tbaa !3
  %.not = icmp eq ptr %1, null
  br i1 %.not, label %6, label %2

2:                                                ; preds = %0
  %3 = tail call i32 @OPENSSL_sk_num(ptr noundef nonnull %1) #10
  %4 = sext i32 %3 to i64
  %5 = add nsw i64 %4, 10
  br label %6

6:                                                ; preds = %2, %0
  %.0 = phi i64 [ %5, %2 ], [ 10, %0 ]
  ret i64 %.0
}